target datalayout = "e-m:e-p270:32:32-p271:32:32-p272:64:64-i64:64-i128:128-f80:128-n8:16:32:64-S128"
target triple = "x86_64-pc-linux-gnu"

%struct.timeval = type { i64, i64 }
%union.pthread_mutex_t = type { %struct.__pthread_mutex_s }
%struct.__pthread_mutex_s = type { i32, i32, i32, i32, i32, i16, i16, %struct.__pthread_internal_list }
%struct.__pthread_internal_list = type { ptr, ptr }
%struct.settings = type { i64, i32, i32, i32, ptr, i32, i32, i32, ptr, ptr, i32, double, i32, i32, i32, i8, i32, i32, i8, i32, i32, i32, i32, i32, i32, i8, i8, i8, i8, i8, i8, i8, i32, i32, double, double, i32, i32, i8, i32, i8, i8, ptr, i32, i32, i32, i32, double, double, i32, i8, i32, i32, i32, i32, i32, i8, i8, i8, ptr, i32, i32, i32, i32, i32, i32, i32, i32, i32, i32, double, i8, i32, i32, ptr, i32 }
%struct.stats_state = type { i64, i64, i64, i64, float, i32, i32, i32, i32, i8, i8, i8, i8 }
%struct.event = type { %struct.event_callback, %union.anon.1, i32, ptr, %union.anon.3, i16, i16, %struct.timeval }
%struct.event_callback = type { %struct.anon.0, i16, i8, i8, %union.anon, ptr }
%struct.anon.0 = type { ptr, ptr }
%union.anon = type { ptr }
%union.anon.1 = type { %struct.anon.2 }
%struct.anon.2 = type { ptr, ptr }
%union.anon.3 = type { %struct.anon.4 }
%struct.anon.4 = type { %struct.anon.5, %struct.timeval }
%struct.anon.5 = type { ptr, ptr }
%struct.conn = type { ptr, i32, i8, i8, i8, i8, i8, i8, i8, i8, ptr, i32, i32, i32, %struct.event, i16, i16, ptr, ptr, i32, i32, ptr, ptr, ptr, i32, ptr, i32, i32, i32, i32, i32, i32, i32, %struct.sockaddr_in6, i32, i8, %struct.anon.9, %union.protocol_binary_request_header, i64, i64, i16, i32, i32, ptr, ptr, ptr, ptr, ptr, ptr }
%struct.sockaddr_in6 = type { i16, i16, i32, %struct.in6_addr, i32 }
%struct.in6_addr = type { %union.anon.8 }
%union.anon.8 = type { [4 x i32] }
%struct.anon.9 = type { ptr, i64, i64 }
%union.protocol_binary_request_header = type { %struct.anon.10 }
%struct.anon.10 = type { i8, i8, i16, i8, i8, i16, i32, i32, i64 }
%struct.LIBEVENT_THREAD = type { i64, ptr, %struct.thread_notify, %struct.thread_notify, %union.pthread_mutex_t, %struct.iop_head_s, i32, i32, i32, %struct.thread_stats, [3 x %struct.io_queue_s], ptr, ptr, ptr, ptr, ptr, ptr, ptr, i32 }
%struct.thread_notify = type { %struct.event, i32 }
%struct.iop_head_s = type { ptr, ptr }
%struct.thread_stats = type { %union.pthread_mutex_t, i64, i64, i64, i64, i64, i64, i64, i64, i64, i64, i64, i64, i64, i64, i64, i64, i64, i64, i64, i64, i64, i64, i64, i64, i64, i64, i64, i64, i64, i64, [64 x %struct.slab_stats], [256 x i64], i64, i64, i64 }
%struct.slab_stats = type { i64, i64, i64, i64, i64, i64, i64, i64 }
%struct.io_queue_s = type { ptr, %struct.iop_head_s, ptr, i32 }
%struct._logger = type { ptr, ptr, %union.pthread_mutex_t, i64, i64, i64, i16, i16, i16, ptr, ptr }

@settings = dso_local global %struct.settings zeroinitializer, align 8
@stderr = external global ptr, align 8
@stats_state = dso_local global %struct.stats_state zeroinitializer, align 8
@logger_key = external global i32, align 4
@.str.15 = private unnamed_addr constant [25 x i8] c"%d: going from %s to %s\0A\00", align 1
@allow_new_conns = internal global i8 1, align 1
@.str.366 = private unnamed_addr constant [24 x i8] c"<%d connection closed.\0A\00", align 1
@conn_lock = external global %union.pthread_mutex_t, align 8

; Function Attrs: nounwind uwtable
define internal ptr @state_text(i32 noundef %0) #0 {
  %2 = alloca i32, align 4
  %3 = alloca [15 x ptr], align 16
  store i32 %0, ptr %2, align 4, !tbaa !8
  call void @llvm.lifetime.start.p0(i64 120, ptr %3) #15
  call void @llvm.memcpy.p0.p0.i64(ptr align 16 %3, ptr align 16 @__const.state_text.statenames, i64 120, i1 false)
  %4 = load i32, ptr %2, align 4, !tbaa !8
  %5 = zext i32 %4 to i64
  %6 = getelementptr inbounds nuw [15 x ptr], ptr %3, i64 0, i64 %5
  %7 = load ptr, ptr %6, align 8, !tbaa !29
  call void @llvm.lifetime.end.p0(i64 120, ptr %3) #15
  ret ptr %7
}

; Function Attrs: nounwind uwtable
define dso_local void @conn_set_state(ptr noundef %0, i32 noundef %1) #0 {
  %3 = alloca ptr, align 8
  %4 = alloca i32, align 4
  store ptr %0, ptr %3, align 8, !tbaa !10
  store i32 %1, ptr %4, align 4, !tbaa !8
  %5 = load i32, ptr %4, align 4, !tbaa !8
  %6 = load ptr, ptr %3, align 8, !tbaa !10
  %7 = getelementptr inbounds nuw %struct.conn, ptr %6, i32 0, i32 11
  %8 = load i32, ptr %7, align 8, !tbaa !50
  %9 = icmp ne i32 %5, %8
  br i1 %9, label %10, label %36

10:                                               ; preds = %2
  %11 = load i32, ptr getelementptr inbounds nuw (%struct.settings, ptr @settings, i32 0, i32 5), align 8, !tbaa !51
  %12 = icmp sgt i32 %11, 2
  br i1 %12, label %13, label %25

13:                                               ; preds = %10
  %14 = load ptr, ptr @stderr, align 8, !tbaa !52
  %15 = load ptr, ptr %3, align 8, !tbaa !10
  %16 = getelementptr inbounds nuw %struct.conn, ptr %15, i32 0, i32 1
  %17 = load i32, ptr %16, align 8, !tbaa !54
  %18 = load ptr, ptr %3, align 8, !tbaa !10
  %19 = getelementptr inbounds nuw %struct.conn, ptr %18, i32 0, i32 11
  %20 = load i32, ptr %19, align 8, !tbaa !50
  %21 = call ptr @state_text(i32 noundef %20)
  %22 = load i32, ptr %4, align 4, !tbaa !8
  %23 = call ptr @state_text(i32 noundef %22)
  %24 = call i32 (ptr, ptr, ...) @fprintf(ptr noundef %14, ptr noundef @.str.15, i32 noundef %17, ptr noundef %21, ptr noundef %23) #15
  br label %25

25:                                               ; preds = %13, %10
  %26 = load i32, ptr %4, align 4, !tbaa !8
  %27 = icmp eq i32 %26, 5
  br i1 %27, label %31, label %28

28:                                               ; preds = %25
  %29 = load i32, ptr %4, align 4, !tbaa !8
  %30 = icmp eq i32 %29, 9
  br i1 %30, label %31, label %32

31:                                               ; preds = %28, %25
  br label %32

32:                                               ; preds = %31, %28
  %33 = load i32, ptr %4, align 4, !tbaa !8
  %34 = load ptr, ptr %3, align 8, !tbaa !10
  %35 = getelementptr inbounds nuw %struct.conn, ptr %34, i32 0, i32 11
  store i32 %33, ptr %35, align 8, !tbaa !50
  br label %36

36:                                               ; preds = %32, %2
  ret void
}

; Function Attrs: nounwind uwtable
define internal void @rbuf_release(ptr noundef %0) #0 {
  %2 = alloca ptr, align 8
  store ptr %0, ptr %2, align 8, !tbaa !10
  %3 = load ptr, ptr %2, align 8, !tbaa !10
  %4 = getelementptr inbounds nuw %struct.conn, ptr %3, i32 0, i32 17
  %5 = load ptr, ptr %4, align 8, !tbaa !43
  %6 = icmp ne ptr %5, null
  br i1 %6, label %7, label %44

7:                                                ; preds = %1
  %8 = load ptr, ptr %2, align 8, !tbaa !10
  %9 = getelementptr inbounds nuw %struct.conn, ptr %8, i32 0, i32 20
  %10 = load i32, ptr %9, align 4, !tbaa !31
  %11 = icmp eq i32 %10, 0
  br i1 %11, label %12, label %44

12:                                               ; preds = %7
  %13 = load ptr, ptr %2, align 8, !tbaa !10
  %14 = getelementptr inbounds nuw %struct.conn, ptr %13, i32 0, i32 30
  %15 = load i32, ptr %14, align 8, !tbaa !69
  %16 = icmp eq i32 %15, 2
  br i1 %16, label %44, label %17

17:                                               ; preds = %12
  %18 = load ptr, ptr %2, align 8, !tbaa !10
  %19 = getelementptr inbounds nuw %struct.conn, ptr %18, i32 0, i32 7
  %20 = load i8, ptr %19, align 1, !tbaa !44, !range !59, !noundef !60
  %21 = trunc i8 %20 to i1
  br i1 %21, label %22, label %28

22:                                               ; preds = %17
  %23 = load ptr, ptr %2, align 8, !tbaa !10
  %24 = getelementptr inbounds nuw %struct.conn, ptr %23, i32 0, i32 17
  %25 = load ptr, ptr %24, align 8, !tbaa !43
  call void @free(ptr noundef %25) #15
  %26 = load ptr, ptr %2, align 8, !tbaa !10
  %27 = getelementptr inbounds nuw %struct.conn, ptr %26, i32 0, i32 7
  store i8 0, ptr %27, align 1, !tbaa !44
  br label %37

28:                                               ; preds = %17
  %29 = load ptr, ptr %2, align 8, !tbaa !10
  %30 = getelementptr inbounds nuw %struct.conn, ptr %29, i32 0, i32 44
  %31 = load ptr, ptr %30, align 8, !tbaa !32
  %32 = getelementptr inbounds nuw %struct.LIBEVENT_THREAD, ptr %31, i32 0, i32 12
  %33 = load ptr, ptr %32, align 8, !tbaa !33
  %34 = load ptr, ptr %2, align 8, !tbaa !10
  %35 = getelementptr inbounds nuw %struct.conn, ptr %34, i32 0, i32 17
  %36 = load ptr, ptr %35, align 8, !tbaa !43
  call void @do_cache_free(ptr noundef %33, ptr noundef %36)
  br label %37

37:                                               ; preds = %28, %22
  %38 = load ptr, ptr %2, align 8, !tbaa !10
  %39 = getelementptr inbounds nuw %struct.conn, ptr %38, i32 0, i32 19
  store i32 0, ptr %39, align 8, !tbaa !13
  %40 = load ptr, ptr %2, align 8, !tbaa !10
  %41 = getelementptr inbounds nuw %struct.conn, ptr %40, i32 0, i32 17
  store ptr null, ptr %41, align 8, !tbaa !43
  %42 = load ptr, ptr %2, align 8, !tbaa !10
  %43 = getelementptr inbounds nuw %struct.conn, ptr %42, i32 0, i32 18
  store ptr null, ptr %43, align 8, !tbaa !30
  br label %44

44:                                               ; preds = %37, %12, %7, %1
  ret void
}

; Function Attrs: nounwind uwtable
define internal void @conn_cleanup(ptr noundef %0) #0 {
  %2 = alloca ptr, align 8
  store ptr %0, ptr %2, align 8, !tbaa !10
  %3 = load ptr, ptr %2, align 8, !tbaa !10
  call void @conn_release_items(ptr noundef %3)
  %4 = load ptr, ptr %2, align 8, !tbaa !10
  %5 = getelementptr inbounds nuw %struct.conn, ptr %4, i32 0, i32 0
  %6 = load ptr, ptr %5, align 8, !tbaa !391
  %7 = icmp ne ptr %6, null
  br i1 %7, label %8, label %11

8:                                                ; preds = %1
  %9 = load ptr, ptr %2, align 8, !tbaa !10
  %10 = getelementptr inbounds nuw %struct.conn, ptr %9, i32 0, i32 0
  store ptr null, ptr %10, align 8, !tbaa !391
  br label %11

11:                                               ; preds = %8, %1
  %12 = load ptr, ptr %2, align 8, !tbaa !10
  %13 = getelementptr inbounds nuw %struct.conn, ptr %12, i32 0, i32 30
  %14 = load i32, ptr %13, align 8, !tbaa !69
  %15 = icmp eq i32 %14, 2
  br i1 %15, label %16, label %18

16:                                               ; preds = %11
  %17 = load ptr, ptr %2, align 8, !tbaa !10
  call void @conn_set_state(ptr noundef %17, i32 noundef 3)
  br label %18

18:                                               ; preds = %16, %11
  ret void
}

; Function Attrs: nounwind uwtable
define internal void @conn_close(ptr noundef %0) #0 {
  %2 = alloca ptr, align 8
  %3 = alloca ptr, align 8
  store ptr %0, ptr %2, align 8, !tbaa !10
  %4 = load ptr, ptr %2, align 8, !tbaa !10
  %5 = getelementptr inbounds nuw %struct.conn, ptr %4, i32 0, i32 44
  %6 = load ptr, ptr %5, align 8, !tbaa !32
  %7 = icmp ne ptr %6, null
  br i1 %7, label %8, label %50

8:                                                ; preds = %1
  br label %9

9:                                                ; preds = %8
  call void @llvm.lifetime.start.p0(i64 8, ptr %3) #15
  %10 = load ptr, ptr %2, align 8, !tbaa !10
  %11 = getelementptr inbounds nuw %struct.conn, ptr %10, i32 0, i32 44
  %12 = load ptr, ptr %11, align 8, !tbaa !32
  %13 = getelementptr inbounds nuw %struct.LIBEVENT_THREAD, ptr %12, i32 0, i32 16
  %14 = load ptr, ptr %13, align 8, !tbaa !145
  store ptr %14, ptr %3, align 8, !tbaa !117
  %15 = load ptr, ptr %2, align 8, !tbaa !10
  %16 = getelementptr inbounds nuw %struct.conn, ptr %15, i32 0, i32 44
  %17 = load ptr, ptr %16, align 8, !tbaa !32
  %18 = getelementptr inbounds nuw %struct.LIBEVENT_THREAD, ptr %17, i32 0, i32 16
  %19 = load ptr, ptr %18, align 8, !tbaa !145
  %20 = icmp eq ptr %19, null
  br i1 %20, label %21, label %24

21:                                               ; preds = %9
  %22 = load i32, ptr @logger_key, align 4, !tbaa !8
  %23 = call ptr @pthread_getspecific(i32 noundef %22) #15
  store ptr %23, ptr %3, align 8, !tbaa !117
  br label %24

24:                                               ; preds = %21, %9
  %25 = load ptr, ptr %3, align 8, !tbaa !117
  %26 = getelementptr inbounds nuw %struct._logger, ptr %25, i32 0, i32 8
  %27 = load i16, ptr %26, align 4, !tbaa !118
  %28 = zext i16 %27 to i32
  %29 = and i32 %28, 32
  %30 = icmp ne i32 %29, 0
  br i1 %30, label %31, label %48

31:                                               ; preds = %24
  %32 = load ptr, ptr %3, align 8, !tbaa !117
  %33 = load ptr, ptr %2, align 8, !tbaa !10
  %34 = getelementptr inbounds nuw %struct.conn, ptr %33, i32 0, i32 33
  %35 = load ptr, ptr %2, align 8, !tbaa !10
  %36 = getelementptr inbounds nuw %struct.conn, ptr %35, i32 0, i32 34
  %37 = load i32, ptr %36, align 8, !tbaa !116
  %38 = load ptr, ptr %2, align 8, !tbaa !10
  %39 = getelementptr inbounds nuw %struct.conn, ptr %38, i32 0, i32 30
  %40 = load i32, ptr %39, align 8, !tbaa !69
  %41 = load ptr, ptr %2, align 8, !tbaa !10
  %42 = getelementptr inbounds nuw %struct.conn, ptr %41, i32 0, i32 31
  %43 = load i32, ptr %42, align 4, !tbaa !56
  %44 = load ptr, ptr %2, align 8, !tbaa !10
  %45 = getelementptr inbounds nuw %struct.conn, ptr %44, i32 0, i32 1
  %46 = load i32, ptr %45, align 8, !tbaa !54
  %47 = call i32 (ptr, i32, ptr, ...) @logger_log(ptr noundef %32, i32 noundef 7, ptr noundef null, ptr noundef %34, i32 noundef %37, i32 noundef %40, i32 noundef %43, i32 noundef %46)
  br label %48

48:                                               ; preds = %31, %24
  call void @llvm.lifetime.end.p0(i64 8, ptr %3) #15
  br label %49

49:                                               ; preds = %48
  br label %50

50:                                               ; preds = %49, %1
  %51 = load ptr, ptr %2, align 8, !tbaa !10
  %52 = getelementptr inbounds nuw %struct.conn, ptr %51, i32 0, i32 14
  %53 = call i32 @event_del(ptr noundef %52)
  %54 = load i32, ptr getelementptr inbounds nuw (%struct.settings, ptr @settings, i32 0, i32 5), align 8, !tbaa !51
  %55 = icmp sgt i32 %54, 1
  br i1 %55, label %56, label %62

56:                                               ; preds = %50
  %57 = load ptr, ptr @stderr, align 8, !tbaa !52
  %58 = load ptr, ptr %2, align 8, !tbaa !10
  %59 = getelementptr inbounds nuw %struct.conn, ptr %58, i32 0, i32 1
  %60 = load i32, ptr %59, align 8, !tbaa !54
  %61 = call i32 (ptr, ptr, ...) @fprintf(ptr noundef %57, ptr noundef @.str.366, i32 noundef %60) #15
  br label %62

62:                                               ; preds = %56, %50
  %63 = load ptr, ptr %2, align 8, !tbaa !10
  call void @conn_cleanup(ptr noundef %63)
  %64 = load ptr, ptr %2, align 8, !tbaa !10
  %65 = getelementptr inbounds nuw %struct.conn, ptr %64, i32 0, i32 44
  %66 = load ptr, ptr %65, align 8, !tbaa !32
  %67 = icmp ne ptr %66, null
  br i1 %67, label %68, label %72

68:                                               ; preds = %62
  %69 = load ptr, ptr %2, align 8, !tbaa !10
  %70 = getelementptr inbounds nuw %struct.conn, ptr %69, i32 0, i32 20
  store i32 0, ptr %70, align 4, !tbaa !31
  %71 = load ptr, ptr %2, align 8, !tbaa !10
  call void @rbuf_release(ptr noundef %71)
  br label %72

72:                                               ; preds = %68, %62
  %73 = load ptr, ptr %2, align 8, !tbaa !10
  call void @conn_set_state(ptr noundef %73, i32 noundef 10)
  %74 = load ptr, ptr %2, align 8, !tbaa !10
  %75 = getelementptr inbounds nuw %struct.conn, ptr %74, i32 0, i32 9
  %76 = load i8, ptr %75, align 1, !tbaa !124
  %77 = icmp ne i8 %76, 0
  br i1 %77, label %78, label %79

78:                                               ; preds = %72
  br label %79

79:                                               ; preds = %78, %72
  %80 = load ptr, ptr %2, align 8, !tbaa !10
  %81 = getelementptr inbounds nuw %struct.conn, ptr %80, i32 0, i32 1
  %82 = load i32, ptr %81, align 8, !tbaa !54
  %83 = call i32 @close(i32 noundef %82)
  %84 = load ptr, ptr %2, align 8, !tbaa !10
  %85 = getelementptr inbounds nuw %struct.conn, ptr %84, i32 0, i32 31
  store i32 0, ptr %85, align 4, !tbaa !56
  %86 = call i32 @pthread_mutex_lock(ptr noundef @conn_lock) #15
  store volatile i8 1, ptr @allow_new_conns, align 1, !tbaa !57
  %87 = call i32 @pthread_mutex_unlock(ptr noundef @conn_lock) #15
  call void @STATS_LOCK()
  %88 = load i64, ptr getelementptr inbounds nuw (%struct.stats_state, ptr @stats_state, i32 0, i32 2), align 8, !tbaa !127
  %89 = add i64 %88, -1
  store i64 %89, ptr getelementptr inbounds nuw (%struct.stats_state, ptr @stats_state, i32 0, i32 2), align 8, !tbaa !127
  call void @STATS_UNLOCK()
  ret void
}