; Function Attrs: nounwind uwtable
define internal fastcc void @conn_close(ptr noundef %0) unnamed_addr #1 {
  %2 = getelementptr inbounds nuw i8, ptr %0, i64 400
  %3 = load ptr, ptr %2, align 8, !tbaa !30
  %.not = icmp eq ptr %3, null
  br i1 %.not, label %26, label %4

4:                                                ; preds = %1
  %5 = getelementptr inbounds nuw i8, ptr %3, i64 6968
  %6 = load ptr, ptr %5, align 8, !tbaa !159
  %7 = icmp eq ptr %6, null
  br i1 %7, label %8, label %11

8:                                                ; preds = %4
  %9 = load i32, ptr @logger_key, align 4, !tbaa !8
  %10 = tail call ptr @pthread_getspecific(i32 noundef %9) #34
  br label %11

11:                                               ; preds = %8, %4
  %.0 = phi ptr [ %10, %8 ], [ %6, %4 ]
  %12 = getelementptr inbounds nuw i8, ptr %.0, i64 84
  %13 = load i16, ptr %12, align 4, !tbaa !144
  %14 = and i16 %13, 32
  %.not22 = icmp eq i16 %14, 0
  br i1 %.not22, label %26, label %15

15:                                               ; preds = %11
  %16 = getelementptr inbounds nuw i8, ptr %0, i64 276
  %17 = getelementptr inbounds nuw i8, ptr %0, i64 304
  %18 = load i32, ptr %17, align 8, !tbaa !75
  %19 = getelementptr inbounds nuw i8, ptr %0, i64 264
  %20 = load i32, ptr %19, align 8, !tbaa !65
  %21 = getelementptr inbounds nuw i8, ptr %0, i64 268
  %22 = load i32, ptr %21, align 4, !tbaa !54
  %23 = getelementptr inbounds nuw i8, ptr %0, i64 8
  %24 = load i32, ptr %23, align 8, !tbaa !52
  %25 = tail call i32 (ptr, i32, ptr, ...) @logger_log(ptr noundef nonnull %.0, i32 noundef 7, ptr noundef null, ptr noundef nonnull %16, i32 noundef %18, i32 noundef %20, i32 noundef %22, i32 noundef %24) #34
  br label %26

26:                                               ; preds = %11, %15, %1
  %27 = getelementptr inbounds nuw i8, ptr %0, i64 48
  %28 = tail call i32 @event_del(ptr noundef nonnull %27) #34
  %29 = load i32, ptr getelementptr inbounds nuw (i8, ptr @settings, i64 32), align 8, !tbaa !49
  %30 = icmp sgt i32 %29, 1
  br i1 %30, label %31, label %36

31:                                               ; preds = %26
  %32 = load ptr, ptr @stderr, align 8, !tbaa !50
  %33 = getelementptr inbounds nuw i8, ptr %0, i64 8
  %34 = load i32, ptr %33, align 8, !tbaa !52
  %35 = tail call i32 (ptr, ptr, ...) @fprintf(ptr noundef %32, ptr noundef nonnull @.str.366, i32 noundef %34) #36
  br label %36

36:                                               ; preds = %31, %26
  tail call void @conn_release_items(ptr noundef nonnull %0)
  %37 = load ptr, ptr %0, align 8, !tbaa !130
  %.not.i = icmp eq ptr %37, null
  br i1 %.not.i, label %39, label %38

38:                                               ; preds = %36
  store ptr null, ptr %0, align 8, !tbaa !130
  br label %39

39:                                               ; preds = %38, %36
  %40 = getelementptr inbounds nuw i8, ptr %0, i64 264
  %41 = load i32, ptr %40, align 8, !tbaa !65
  %42 = icmp eq i32 %41, 2
  br i1 %42, label %43, label %conn_cleanup.exit

43:                                               ; preds = %39
  %44 = getelementptr inbounds nuw i8, ptr %0, i64 32
  %45 = load i32, ptr %44, align 8, !tbaa !48
  %.not.i.i = icmp eq i32 %45, 3
  br i1 %.not.i.i, label %conn_cleanup.exit, label %46

46:                                               ; preds = %43
  %47 = load i32, ptr getelementptr inbounds nuw (i8, ptr @settings, i64 32), align 8, !tbaa !49
  %48 = icmp sgt i32 %47, 2
  br i1 %48, label %49, label %57

49:                                               ; preds = %46
  %50 = load ptr, ptr @stderr, align 8, !tbaa !50
  %51 = getelementptr inbounds nuw i8, ptr %0, i64 8
  %52 = load i32, ptr %51, align 8, !tbaa !52
  %53 = zext i32 %45 to i64
  %54 = getelementptr inbounds nuw [15 x ptr], ptr @__const.state_text.statenames, i64 0, i64 %53
  %55 = load ptr, ptr %54, align 8, !tbaa !55
  %56 = tail call i32 (ptr, ptr, ...) @fprintf(ptr noundef %50, ptr noundef nonnull @.str.15, i32 noundef %52, ptr noundef %55, ptr noundef nonnull @.str.370) #36
  br label %57

57:                                               ; preds = %49, %46
  store i32 3, ptr %44, align 8, !tbaa !48
  br label %conn_cleanup.exit

conn_cleanup.exit:                                ; preds = %39, %43, %57
  %58 = load ptr, ptr %2, align 8, !tbaa !30
  %.not23 = icmp eq ptr %58, null
  br i1 %.not23, label %rbuf_release.exit, label %59

59:                                               ; preds = %conn_cleanup.exit
  %60 = getelementptr inbounds nuw i8, ptr %0, i64 204
  store i32 0, ptr %60, align 4, !tbaa !29
  %61 = getelementptr inbounds nuw i8, ptr %0, i64 184
  %62 = load ptr, ptr %61, align 8, !tbaa !41
  %.not.i24 = icmp eq ptr %62, null
  br i1 %.not.i24, label %rbuf_release.exit, label %63

63:                                               ; preds = %59
  %64 = load i32, ptr %40, align 8, !tbaa !65
  %65 = icmp eq i32 %64, 2
  br i1 %65, label %rbuf_release.exit, label %66

66:                                               ; preds = %63
  %67 = getelementptr inbounds nuw i8, ptr %0, i64 17
  %68 = load i8, ptr %67, align 1, !tbaa !42, !range !60, !noundef !61
  %69 = trunc nuw i8 %68 to i1
  br i1 %69, label %70, label %71

70:                                               ; preds = %66
  tail call void @free(ptr noundef nonnull %62) #34
  store i8 0, ptr %67, align 1, !tbaa !42
  br label %74

71:                                               ; preds = %66
  %72 = getelementptr inbounds nuw i8, ptr %58, i64 6936
  %73 = load ptr, ptr %72, align 8, !tbaa !31
  tail call void @do_cache_free(ptr noundef %73, ptr noundef nonnull %62) #34
  br label %74

74:                                               ; preds = %71, %70
  tail call void @llvm.memset.p0.i64(ptr noundef nonnull align 8 dereferenceable(20) %61, i8 0, i64 20, i1 false)
  br label %rbuf_release.exit

rbuf_release.exit:                                ; preds = %74, %63, %59, %conn_cleanup.exit
  %75 = getelementptr inbounds nuw i8, ptr %0, i64 32
  %76 = load i32, ptr %75, align 8, !tbaa !48
  %.not.i25 = icmp eq i32 %76, 10
  br i1 %.not.i25, label %conn_set_state.exit, label %77

77:                                               ; preds = %rbuf_release.exit
  %78 = load i32, ptr getelementptr inbounds nuw (i8, ptr @settings, i64 32), align 8, !tbaa !49
  %79 = icmp sgt i32 %78, 2
  br i1 %79, label %80, label %88

80:                                               ; preds = %77
  %81 = load ptr, ptr @stderr, align 8, !tbaa !50
  %82 = getelementptr inbounds nuw i8, ptr %0, i64 8
  %83 = load i32, ptr %82, align 8, !tbaa !52
  %84 = zext i32 %76 to i64
  %85 = getelementptr inbounds nuw [15 x ptr], ptr @__const.state_text.statenames, i64 0, i64 %84
  %86 = load ptr, ptr %85, align 8, !tbaa !55
  %87 = tail call i32 (ptr, ptr, ...) @fprintf(ptr noundef %81, ptr noundef nonnull @.str.15, i32 noundef %83, ptr noundef %86, ptr noundef nonnull @.str.377) #36
  br label %88

88:                                               ; preds = %80, %77
  store i32 10, ptr %75, align 8, !tbaa !48
  br label %conn_set_state.exit

conn_set_state.exit:                              ; preds = %rbuf_release.exit, %88
  %89 = getelementptr inbounds nuw i8, ptr %0, i64 8
  %90 = load i32, ptr %89, align 8, !tbaa !52
  %91 = tail call i32 @close(i32 noundef %90) #34
  %92 = getelementptr inbounds nuw i8, ptr %0, i64 268
  store i32 0, ptr %92, align 4, !tbaa !54
  %93 = tail call i32 @pthread_mutex_lock(ptr noundef nonnull @conn_lock) #34
  store volatile i8 1, ptr @allow_new_conns, align 1, !tbaa !160
  %94 = tail call i32 @pthread_mutex_unlock(ptr noundef nonnull @conn_lock) #34
  tail call void @STATS_LOCK() #34
  %95 = load i64, ptr getelementptr inbounds nuw (i8, ptr @stats_state, i64 16), align 8, !tbaa !153
  %96 = add i64 %95, -1
  store i64 %96, ptr getelementptr inbounds nuw (i8, ptr @stats_state, i64 16), align 8, !tbaa !153
  tail call void @STATS_UNLOCK() #34
  ret void
}